; Function Attrs: mustprogress uwtable
define dso_local noundef nonnull ptr @_ZN11SafeOpFlags12get_rhs_typeEv(ptr noundef nonnull readonly align 4 captures(none) dereferenceable(8) %0) local_unnamed_addr #7 align 2 {
  %2 = getelementptr inbounds nuw i8, ptr %0, i64 1
  %3 = load i8, ptr %2, align 1, !tbaa !25, !range !28, !noundef !29
  %4 = trunc nuw i8 %3 to i1
  %5 = getelementptr inbounds nuw i8, ptr %0, i64 4
  %6 = load i32, ptr %5, align 4, !tbaa !27
  br i1 %4, label %7, label %9

7:                                                ; preds = %1
  %8 = icmp ult i32 %6, 5
  br i1 %8, label %switch.lookup, label %_ZN11SafeOpFlags13flags_to_typeEb10SafeOpSize.exit

9:                                                ; preds = %1
  %10 = icmp ult i32 %6, 4
  br i1 %10, label %switch.lookup2, label %_ZN11SafeOpFlags13flags_to_typeEb10SafeOpSize.exit

switch.lookup:                                    ; preds = %7
  %11 = zext nneg i32 %6 to i64
  %switch.gep = getelementptr inbounds nuw [5 x i32], ptr @switch.table._ZN11SafeOpFlags12get_rhs_typeEv, i64 0, i64 %11
  %switch.load = load i32, ptr %switch.gep, align 4
  br label %_ZN11SafeOpFlags13flags_to_typeEb10SafeOpSize.exit

switch.lookup2:                                   ; preds = %9
  %12 = zext nneg i32 %6 to i64
  %switch.gep3 = getelementptr inbounds nuw [4 x i32], ptr @switch.table._ZN11SafeOpFlags12get_rhs_typeEv.3, i64 0, i64 %12
  %switch.load4 = load i32, ptr %switch.gep3, align 4
  br label %_ZN11SafeOpFlags13flags_to_typeEb10SafeOpSize.exit

_ZN11SafeOpFlags13flags_to_typeEb10SafeOpSize.exit: ; preds = %7, %9, %switch.lookup2, %switch.lookup
  %.0.i = phi i32 [ %switch.load, %switch.lookup ], [ %switch.load4, %switch.lookup2 ], [ 2, %9 ], [ 2, %7 ]
  %13 = tail call noundef nonnull align 8 dereferenceable(136) ptr @_ZN4Type15get_simple_typeE11eSimpleType(i32 noundef %.0.i)
  ret ptr %13
}